target datalayout = "e-m:e-p270:32:32-p271:32:32-p272:64:64-i64:64-i128:128-f80:128-n8:16:32:64-S128"
target triple = "x86_64-pc-linux-gnu"

%struct.reassembly_table = type { ptr, ptr, ptr, ptr, ptr }
%struct._fragment_head = type { ptr, ptr, i32, i32, i32, i32, i32, i32, i32, i8, i32, ptr, ptr }
%struct._fragment_item = type { ptr, i32, i32, i32, i32, ptr }

@.str.4 = private unnamed_addr constant [33 x i8] c"Bad total reassembly block count\00", align 1
@.str.5 = private unnamed_addr constant [53 x i8] c"Defragmented complete but total length not satisfied\00", align 1

; Function Attrs: null_pointer_is_valid sspstrong uwtable
define internal ptr @lookup_fd_head(ptr noundef %0, ptr noundef %1, i32 noundef %2, ptr noundef %3, ptr noundef %4) #1 {
  %6 = alloca ptr, align 8
  %7 = alloca ptr, align 8
  %8 = alloca i32, align 4
  %9 = alloca ptr, align 8
  %10 = alloca ptr, align 8
  %11 = alloca ptr, align 8
  %12 = alloca ptr, align 8
  store ptr %0, ptr %6, align 8
  store ptr %1, ptr %7, align 8
  store i32 %2, ptr %8, align 4
  store ptr %3, ptr %9, align 8
  store ptr %4, ptr %10, align 8
  call void @llvm.lifetime.start.p0(i64 8, ptr %11) #16
  call void @llvm.lifetime.start.p0(i64 8, ptr %12) #16
  %13 = load ptr, ptr %6, align 8
  %14 = getelementptr inbounds nuw %struct.reassembly_table, ptr %13, i32 0, i32 2
  %15 = load ptr, ptr %14, align 8
  %16 = load ptr, ptr %7, align 8
  %17 = load i32, ptr %8, align 4
  %18 = load ptr, ptr %9, align 8
  %19 = call ptr %15(ptr noundef %16, i32 noundef %17, ptr noundef %18)
  store ptr %19, ptr %11, align 8
  %20 = load ptr, ptr %6, align 8
  %21 = getelementptr inbounds nuw %struct.reassembly_table, ptr %20, i32 0, i32 0
  %22 = load ptr, ptr %21, align 8
  %23 = load ptr, ptr %11, align 8
  %24 = load ptr, ptr %10, align 8
  %25 = call i32 @g_hash_table_lookup_extended(ptr noundef %22, ptr noundef %23, ptr noundef %24, ptr noundef %12)
  %26 = icmp ne i32 %25, 0
  br i1 %26, label %28, label %27

27:                                               ; preds = %5
  store ptr null, ptr %12, align 8
  br label %28

28:                                               ; preds = %27, %5
  %29 = load ptr, ptr %6, align 8
  %30 = getelementptr inbounds nuw %struct.reassembly_table, ptr %29, i32 0, i32 4
  %31 = load ptr, ptr %30, align 8
  %32 = load ptr, ptr %11, align 8
  call void %31(ptr noundef %32)
  %33 = load ptr, ptr %12, align 8
  call void @llvm.lifetime.end.p0(i64 8, ptr %12) #16
  call void @llvm.lifetime.end.p0(i64 8, ptr %11) #16
  ret ptr %33
}

; Function Attrs: null_pointer_is_valid sspstrong uwtable
define void @fragment_set_tot_len(ptr noundef %0, ptr noundef %1, i32 noundef %2, ptr noundef %3, i32 noundef %4) #1 {
  %6 = alloca ptr, align 8
  %7 = alloca ptr, align 8
  %8 = alloca i32, align 4
  %9 = alloca ptr, align 8
  %10 = alloca i32, align 4
  %11 = alloca ptr, align 8
  %12 = alloca ptr, align 8
  %13 = alloca i32, align 4
  %14 = alloca i32, align 4
  store ptr %0, ptr %6, align 8
  store ptr %1, ptr %7, align 8
  store i32 %2, ptr %8, align 4
  store ptr %3, ptr %9, align 8
  store i32 %4, ptr %10, align 4
  call void @llvm.lifetime.start.p0(i64 8, ptr %11) #16
  call void @llvm.lifetime.start.p0(i64 8, ptr %12) #16
  call void @llvm.lifetime.start.p0(i64 4, ptr %13) #16
  store i32 0, ptr %13, align 4
  %15 = load ptr, ptr %6, align 8
  %16 = load ptr, ptr %7, align 8
  %17 = load i32, ptr %8, align 4
  %18 = load ptr, ptr %9, align 8
  %19 = call ptr @lookup_fd_head(ptr noundef %15, ptr noundef %16, i32 noundef %17, ptr noundef %18, ptr noundef null)
  store ptr %19, ptr %11, align 8
  %20 = load ptr, ptr %11, align 8
  %21 = icmp ne ptr %20, null
  br i1 %21, label %23, label %22

22:                                               ; preds = %5
  store i32 1, ptr %14, align 4
  br label %87

23:                                               ; preds = %5
  %24 = load ptr, ptr %11, align 8
  %25 = getelementptr inbounds nuw %struct._fragment_head, ptr %24, i32 0, i32 10
  %26 = load i32, ptr %25, align 8
  %27 = and i32 %26, 256
  %28 = icmp ne i32 %27, 0
  br i1 %28, label %29, label %62

29:                                               ; preds = %23
  %30 = load ptr, ptr %11, align 8
  %31 = getelementptr inbounds nuw %struct._fragment_head, ptr %30, i32 0, i32 0
  %32 = load ptr, ptr %31, align 8
  store ptr %32, ptr %12, align 8
  br label %33

33:                                               ; preds = %57, %29
  %34 = load ptr, ptr %12, align 8
  %35 = icmp ne ptr %34, null
  br i1 %35, label %36, label %61

36:                                               ; preds = %33
  %37 = load ptr, ptr %12, align 8
  %38 = getelementptr inbounds nuw %struct._fragment_item, ptr %37, i32 0, i32 2
  %39 = load i32, ptr %38, align 4
  %40 = load i32, ptr %13, align 4
  %41 = icmp ugt i32 %39, %40
  br i1 %41, label %42, label %56

42:                                               ; preds = %36
  %43 = load ptr, ptr %12, align 8
  %44 = getelementptr inbounds nuw %struct._fragment_item, ptr %43, i32 0, i32 2
  %45 = load i32, ptr %44, align 4
  store i32 %45, ptr %13, align 4
  %46 = load i32, ptr %13, align 4
  %47 = load i32, ptr %10, align 4
  %48 = icmp ugt i32 %46, %47
  br i1 %48, label %49, label %55

49:                                               ; preds = %42
  %50 = load ptr, ptr %11, align 8
  %51 = getelementptr inbounds nuw %struct._fragment_head, ptr %50, i32 0, i32 12
  store ptr @.str.4, ptr %51, align 8
  %52 = load ptr, ptr %11, align 8
  %53 = getelementptr inbounds nuw %struct._fragment_head, ptr %52, i32 0, i32 12
  %54 = load ptr, ptr %53, align 8
  call void @except_throw(i64 noundef 1, i64 noundef 9, ptr noundef %54) #18
  unreachable

55:                                               ; preds = %42
  br label %56

56:                                               ; preds = %55, %36
  br label %57

57:                                               ; preds = %56
  %58 = load ptr, ptr %12, align 8
  %59 = getelementptr inbounds nuw %struct._fragment_item, ptr %58, i32 0, i32 0
  %60 = load ptr, ptr %59, align 8
  store ptr %60, ptr %12, align 8
  br label %33, !llvm.loop !9

61:                                               ; preds = %33
  br label %62

62:                                               ; preds = %61, %23
  %63 = load ptr, ptr %11, align 8
  %64 = getelementptr inbounds nuw %struct._fragment_head, ptr %63, i32 0, i32 10
  %65 = load i32, ptr %64, align 8
  %66 = and i32 %65, 1
  %67 = icmp ne i32 %66, 0
  br i1 %67, label %68, label %79

68:                                               ; preds = %62
  %69 = load i32, ptr %13, align 4
  %70 = load i32, ptr %10, align 4
  %71 = icmp ne i32 %69, %70
  br i1 %71, label %72, label %78

72:                                               ; preds = %68
  %73 = load ptr, ptr %11, align 8
  %74 = getelementptr inbounds nuw %struct._fragment_head, ptr %73, i32 0, i32 12
  store ptr @.str.5, ptr %74, align 8
  %75 = load ptr, ptr %11, align 8
  %76 = getelementptr inbounds nuw %struct._fragment_head, ptr %75, i32 0, i32 12
  %77 = load ptr, ptr %76, align 8
  call void @except_throw(i64 noundef 1, i64 noundef 9, ptr noundef %77) #18
  unreachable

78:                                               ; preds = %68
  br label %79

79:                                               ; preds = %78, %62
  %80 = load i32, ptr %10, align 4
  %81 = load ptr, ptr %11, align 8
  %82 = getelementptr inbounds nuw %struct._fragment_head, ptr %81, i32 0, i32 7
  store i32 %80, ptr %82, align 4
  %83 = load ptr, ptr %11, align 8
  %84 = getelementptr inbounds nuw %struct._fragment_head, ptr %83, i32 0, i32 10
  %85 = load i32, ptr %84, align 8
  %86 = or i32 %85, 1024
  store i32 %86, ptr %84, align 8
  store i32 0, ptr %14, align 4
  br label %87

87:                                               ; preds = %79, %22
  call void @llvm.lifetime.end.p0(i64 4, ptr %13) #16
  call void @llvm.lifetime.end.p0(i64 8, ptr %12) #16
  call void @llvm.lifetime.end.p0(i64 8, ptr %11) #16
  %88 = load i32, ptr %14, align 4
  switch i32 %88, label %90 [
    i32 0, label %89
    i32 1, label %89
  ]

89:                                               ; preds = %87, %87
  ret void

90:                                               ; preds = %87
  unreachable
}