; Function Attrs: null_pointer_is_valid sspstrong uwtable
define void @fragment_set_tot_len(ptr noundef readonly captures(none) %0, ptr noundef %1, i32 noundef %2, ptr noundef %3, i32 noundef %4) local_unnamed_addr #2 {
  %6 = alloca ptr, align 8
  call void @llvm.lifetime.start.p0(i64 8, ptr nonnull %6) #18
  %7 = getelementptr inbounds nuw i8, ptr %0, i64 16
  %8 = load ptr, ptr %7, align 8
  %9 = tail call ptr %8(ptr noundef %1, i32 noundef %2, ptr noundef %3)
  %10 = load ptr, ptr %0, align 8
  %11 = call i32 @g_hash_table_lookup_extended(ptr noundef %10, ptr noundef %9, ptr noundef null, ptr noundef nonnull %6)
  %.not.i = icmp eq i32 %11, 0
  br i1 %.not.i, label %12, label %lookup_fd_head.exit

12:                                               ; preds = %5
  store ptr null, ptr %6, align 8
  br label %lookup_fd_head.exit

lookup_fd_head.exit:                              ; preds = %5, %12
  %13 = getelementptr inbounds nuw i8, ptr %0, i64 32
  %14 = load ptr, ptr %13, align 8
  call void %14(ptr noundef %9)
  %15 = load ptr, ptr %6, align 8
  call void @llvm.lifetime.end.p0(i64 8, ptr nonnull %6) #18
  %.not = icmp eq ptr %15, null
  br i1 %.not, label %34, label %16

16:                                               ; preds = %lookup_fd_head.exit
  %17 = getelementptr inbounds nuw i8, ptr %15, i64 48
  %18 = load i32, ptr %17, align 8
  %19 = and i32 %18, 256
  %.not26 = icmp eq i32 %19, 0
  br i1 %.not26, label %.loopexit, label %.preheader

.preheader:                                       ; preds = %16
  %.02331 = load ptr, ptr %15, align 8
  %.not2732 = icmp eq ptr %.02331, null
  br i1 %.not2732, label %.loopexit, label %.lr.ph

.lr.ph:                                           ; preds = %.preheader, %27
  %.02334 = phi ptr [ %.023, %27 ], [ %.02331, %.preheader ]
  %.133 = phi i32 [ %.2, %27 ], [ 0, %.preheader ]
  %20 = getelementptr inbounds nuw i8, ptr %.02334, i64 12
  %21 = load i32, ptr %20, align 4
  %22 = icmp ugt i32 %21, %.133
  br i1 %22, label %23, label %27

23:                                               ; preds = %.lr.ph
  %24 = icmp ugt i32 %21, %4
  br i1 %24, label %25, label %27

25:                                               ; preds = %23
  %26 = getelementptr inbounds nuw i8, ptr %15, i64 64
  store ptr @.str.4, ptr %26, align 8
  call void @except_throw(i64 noundef 1, i64 noundef 9, ptr noundef nonnull @.str.4) #17
  unreachable

27:                                               ; preds = %.lr.ph, %23
  %.2 = phi i32 [ %21, %23 ], [ %.133, %.lr.ph ]
  %.023 = load ptr, ptr %.02334, align 8
  %.not27 = icmp eq ptr %.023, null
  br i1 %.not27, label %.loopexit, label %.lr.ph, !llvm.loop !10

.loopexit:                                        ; preds = %27, %.preheader, %16
  %.0 = phi i32 [ 0, %16 ], [ 0, %.preheader ], [ %.2, %27 ]
  %28 = and i32 %18, 1
  %.not28 = icmp eq i32 %28, 0
  %.not29 = icmp eq i32 %.0, %4
  %or.cond = or i1 %.not28, %.not29
  br i1 %or.cond, label %31, label %29

29:                                               ; preds = %.loopexit
  %30 = getelementptr inbounds nuw i8, ptr %15, i64 64
  store ptr @.str.5, ptr %30, align 8
  call void @except_throw(i64 noundef 1, i64 noundef 9, ptr noundef nonnull @.str.5) #17
  unreachable

31:                                               ; preds = %.loopexit
  %32 = getelementptr inbounds nuw i8, ptr %15, i64 36
  store i32 %4, ptr %32, align 4
  %33 = or i32 %18, 1024
  store i32 %33, ptr %17, align 8
  br label %34

34:                                               ; preds = %lookup_fd_head.exit, %31
  ret void
}